; Function Attrs: mustprogress uwtable
define hidden void @_ZN4cvc56parser14Smt2TermParser8parseStrB5cxx11Eb(ptr noalias sret(%"class.std::__cxx11::basic_string") align 8 %agg.result, ptr nocapture noundef nonnull readonly align 8 dereferenceable(24) %this, i1 noundef zeroext %unescape) local_unnamed_addr #5 align 2 personality ptr @__gxx_personality_v0 {
entry:
  %ref.tmp = alloca %"class.std::allocator", align 1
  %d_lex = getelementptr inbounds i8, ptr %this, i64 8
  %0 = load ptr, ptr %d_lex, align 8
  tail call void @_ZN4cvc56parser5Lexer8eatTokenENS0_5TokenE(ptr noundef nonnull align 8 dereferenceable(32892) %0, i32 noundef 78)
  %1 = load ptr, ptr %d_lex, align 8
  %vtable = load ptr, ptr %1, align 8
  %vfn = getelementptr inbounds i8, ptr %vtable, i64 24
  %2 = load ptr, ptr %vfn, align 8
  %call = tail call noundef ptr %2(ptr noundef nonnull align 8 dereferenceable(33178) %1)
  call void @_ZNSaIcEC1Ev(ptr noundef nonnull align 1 dereferenceable(1) %ref.tmp) #19
  %call.i2 = invoke noundef ptr @_ZNSt7__cxx1112basic_stringIcSt11char_traitsIcESaIcEE13_M_local_dataEv(ptr noundef nonnull align 8 dereferenceable(32) %agg.result)
          to label %call.i.noexc unwind label %lpad

call.i.noexc:                                     ; preds = %entry
  invoke void @_ZNSt7__cxx1112basic_stringIcSt11char_traitsIcESaIcEE12_Alloc_hiderC1EPcRKS3_(ptr noundef nonnull align 8 dereferenceable(8) %agg.result, ptr noundef %call.i2, ptr noundef nonnull align 1 dereferenceable(1) %ref.tmp)
          to label %.noexc unwind label %lpad

.noexc:                                           ; preds = %call.i.noexc
  %cmp.i = icmp eq ptr %call, null
  br i1 %cmp.i, label %if.then.i, label %if.end.i

if.then.i:                                        ; preds = %.noexc
  invoke void @_ZSt19__throw_logic_errorPKc(ptr noundef nonnull @.str.60) #21
          to label %invoke.cont.i unwind label %lpad.i

invoke.cont.i:                                    ; preds = %if.then.i
  unreachable

lpad.i:                                           ; preds = %if.end.i, %if.then.i
  %3 = landingpad { ptr, i32 }
          cleanup
  call void @_ZNSaIcED2Ev(ptr noundef nonnull align 1 dereferenceable(1) %agg.result) #19
  br label %lpad.body

if.end.i:                                         ; preds = %.noexc
  %call.i.i = call noundef i64 @strlen(ptr noundef nonnull dereferenceable(1) %call) #19
  %add.ptr.i = getelementptr inbounds i8, ptr %call, i64 %call.i.i
  invoke void @_ZNSt7__cxx1112basic_stringIcSt11char_traitsIcESaIcEE12_M_constructIPKcEEvT_S8_St20forward_iterator_tag(ptr noundef nonnull align 8 dereferenceable(32) %agg.result, ptr noundef nonnull %call, ptr noundef nonnull %add.ptr.i)
          to label %invoke.cont unwind label %lpad.i

invoke.cont:                                      ; preds = %if.end.i
  call void @_ZNSaIcED1Ev(ptr noundef nonnull align 1 dereferenceable(1) %ref.tmp) #19
  br i1 %unescape, label %if.then, label %nrvo.skipdtor

if.then:                                          ; preds = %invoke.cont
  invoke void @_ZN4cvc56parser14Smt2TermParser14unescapeStringERNSt7__cxx1112basic_stringIcSt11char_traitsIcESaIcEEE(ptr noundef nonnull align 8 dereferenceable(24) %this, ptr noundef nonnull align 8 dereferenceable(32) %agg.result)
          to label %nrvo.skipdtor unwind label %lpad3

lpad:                                             ; preds = %call.i.noexc, %entry
  %4 = landingpad { ptr, i32 }
          cleanup
  br label %lpad.body

lpad.body:                                        ; preds = %lpad.i, %lpad
  %eh.lpad-body = phi { ptr, i32 } [ %4, %lpad ], [ %3, %lpad.i ]
  call void @_ZNSaIcED1Ev(ptr noundef nonnull align 1 dereferenceable(1) %ref.tmp) #19
  br label %eh.resume

lpad3:                                            ; preds = %if.then
  %5 = landingpad { ptr, i32 }
          cleanup
  call void @_ZNSt7__cxx1112basic_stringIcSt11char_traitsIcESaIcEED1Ev(ptr noundef nonnull align 8 dereferenceable(32) %agg.result) #19
  br label %eh.resume

nrvo.skipdtor:                                    ; preds = %invoke.cont, %if.then
  ret void

eh.resume:                                        ; preds = %lpad3, %lpad.body
  %.pn = phi { ptr, i32 } [ %5, %lpad3 ], [ %eh.lpad-body, %lpad.body ]
  resume { ptr, i32 } %.pn
}